; Function Attrs: nounwind uwtable
define ptr @l_Std_Format_joinSep___at___private_Lean_Widget_TaggedText_0__Lean_Widget_reprTaggedText____x40_Lean_Widget_TaggedText___hyg_225____spec__3___rarg(ptr noundef %0, ptr noundef %1, ptr noundef %2) #1 {
  %4 = ptrtoint ptr %1 to i64
  %5 = and i64 %4, 1
  %.not.i43 = icmp eq i64 %5, 0
  br i1 %.not.i43, label %9, label %6

6:                                                ; preds = %3
  %7 = lshr i64 %4, 1
  %8 = trunc i64 %7 to i32
  br label %lean_obj_tag.exit

9:                                                ; preds = %3
  %10 = getelementptr i8, ptr %1, i64 4
  %.val.i = load i32, ptr %10, align 4
  %11 = lshr i32 %.val.i, 24
  br label %lean_obj_tag.exit

lean_obj_tag.exit:                                ; preds = %6, %9
  %.0.i = phi i32 [ %8, %6 ], [ %11, %9 ]
  %12 = icmp eq i32 %.0.i, 0
  br i1 %12, label %13, label %32

13:                                               ; preds = %lean_obj_tag.exit
  %14 = ptrtoint ptr %2 to i64
  %15 = and i64 %14, 1
  %.not66 = icmp eq i64 %15, 0
  br i1 %.not66, label %16, label %lean_dec.exit31

16:                                               ; preds = %13
  %17 = load i32, ptr %2, align 4, !tbaa !9
  %18 = icmp sgt i32 %17, 1
  br i1 %18, label %19, label %21, !prof !12

19:                                               ; preds = %16
  %20 = add nsw i32 %17, -1
  store i32 %20, ptr %2, align 4, !tbaa !9
  br label %lean_dec.exit31

21:                                               ; preds = %16
  %.not.i = icmp eq i32 %17, 0
  br i1 %.not.i, label %lean_dec.exit31, label %22

22:                                               ; preds = %21
  tail call void @lean_dec_ref_cold(ptr noundef nonnull %2) #5
  br label %lean_dec.exit31

lean_dec.exit31:                                  ; preds = %22, %21, %19, %13
  %23 = ptrtoint ptr %0 to i64
  %24 = and i64 %23, 1
  %.not67 = icmp eq i64 %24, 0
  br i1 %.not67, label %25, label %lean_dec.exit30

25:                                               ; preds = %lean_dec.exit31
  %26 = load i32, ptr %0, align 4, !tbaa !9
  %27 = icmp sgt i32 %26, 1
  br i1 %27, label %28, label %30, !prof !12

28:                                               ; preds = %25
  %29 = add nsw i32 %26, -1
  store i32 %29, ptr %0, align 4, !tbaa !9
  br label %lean_dec.exit30

30:                                               ; preds = %25
  %.not.i35 = icmp eq i32 %26, 0
  br i1 %.not.i35, label %lean_dec.exit30, label %31

31:                                               ; preds = %30
  tail call void @lean_dec_ref_cold(ptr noundef nonnull %0) #5
  br label %lean_dec.exit30

32:                                               ; preds = %lean_obj_tag.exit
  %33 = getelementptr inbounds nuw i8, ptr %1, i64 8
  %34 = getelementptr inbounds nuw i8, ptr %1, i64 16
  %35 = load ptr, ptr %34, align 8, !tbaa !4
  %36 = ptrtoint ptr %35 to i64
  %37 = and i64 %36, 1
  %.not = icmp eq i64 %37, 0
  br i1 %.not, label %38, label %lean_inc.exit34

38:                                               ; preds = %32
  %.val.i44 = load i32, ptr %35, align 4, !tbaa !9
  %39 = icmp sgt i32 %.val.i44, 0
  br i1 %39, label %40, label %42, !prof !12

40:                                               ; preds = %38
  %41 = add nuw i32 %.val.i44, 1
  store i32 %41, ptr %35, align 4, !tbaa !9
  br label %46

42:                                               ; preds = %38
  %.not.i45 = icmp eq i32 %.val.i44, 0
  br i1 %.not.i45, label %46, label %43

43:                                               ; preds = %42
  tail call void @lean_inc_ref_cold(ptr noundef nonnull %35) #5
  br label %46

lean_inc.exit34:                                  ; preds = %32
  %44 = lshr i64 %36, 1
  %45 = trunc i64 %44 to i32
  br label %lean_obj_tag.exit49

46:                                               ; preds = %43, %42, %40
  %47 = getelementptr i8, ptr %35, i64 4
  %.val.i48 = load i32, ptr %47, align 4
  %48 = lshr i32 %.val.i48, 24
  br label %lean_obj_tag.exit49

lean_obj_tag.exit49:                              ; preds = %lean_inc.exit34, %46
  %.0.i47 = phi i32 [ %45, %lean_inc.exit34 ], [ %48, %46 ]
  %49 = icmp eq i32 %.0.i47, 0
  br i1 %49, label %50, label %77

50:                                               ; preds = %lean_obj_tag.exit49
  %51 = ptrtoint ptr %2 to i64
  %52 = and i64 %51, 1
  %.not63 = icmp eq i64 %52, 0
  br i1 %.not63, label %53, label %lean_dec.exit29

53:                                               ; preds = %50
  %54 = load i32, ptr %2, align 4, !tbaa !9
  %55 = icmp sgt i32 %54, 1
  br i1 %55, label %56, label %58, !prof !12

56:                                               ; preds = %53
  %57 = add nsw i32 %54, -1
  store i32 %57, ptr %2, align 4, !tbaa !9
  br label %lean_dec.exit29

58:                                               ; preds = %53
  %.not.i37 = icmp eq i32 %54, 0
  br i1 %.not.i37, label %lean_dec.exit29, label %59

59:                                               ; preds = %58
  tail call void @lean_dec_ref_cold(ptr noundef nonnull %2) #5
  br label %lean_dec.exit29

lean_dec.exit29:                                  ; preds = %59, %58, %56, %50
  %60 = load ptr, ptr %33, align 8, !tbaa !4
  %61 = ptrtoint ptr %60 to i64
  %62 = and i64 %61, 1
  %.not64 = icmp eq i64 %62, 0
  br i1 %.not64, label %63, label %lean_inc.exit33

63:                                               ; preds = %lean_dec.exit29
  %.val.i50 = load i32, ptr %60, align 4, !tbaa !9
  %64 = icmp sgt i32 %.val.i50, 0
  br i1 %64, label %65, label %67, !prof !12

65:                                               ; preds = %63
  %66 = add nuw i32 %.val.i50, 1
  store i32 %66, ptr %60, align 4, !tbaa !9
  br label %lean_inc.exit33

67:                                               ; preds = %63
  %.not.i51 = icmp eq i32 %.val.i50, 0
  br i1 %.not.i51, label %lean_inc.exit33, label %68

68:                                               ; preds = %67
  tail call void @lean_inc_ref_cold(ptr noundef nonnull %60) #5
  br label %lean_inc.exit33

lean_inc.exit33:                                  ; preds = %68, %67, %65, %lean_dec.exit29
  br i1 %.not.i43, label %69, label %lean_dec.exit28

69:                                               ; preds = %lean_inc.exit33
  %70 = load i32, ptr %1, align 4, !tbaa !9
  %71 = icmp sgt i32 %70, 1
  br i1 %71, label %72, label %74, !prof !12

72:                                               ; preds = %69
  %73 = add nsw i32 %70, -1
  store i32 %73, ptr %1, align 4, !tbaa !9
  br label %lean_dec.exit28

74:                                               ; preds = %69
  %.not.i39 = icmp eq i32 %70, 0
  br i1 %.not.i39, label %lean_dec.exit28, label %75

75:                                               ; preds = %74
  tail call void @lean_dec_ref_cold(ptr noundef nonnull %1) #5
  br label %lean_dec.exit28

lean_dec.exit28:                                  ; preds = %75, %74, %72, %lean_inc.exit33
  %76 = tail call ptr @l___private_Lean_Widget_TaggedText_0__Lean_Widget_reprTaggedText____x40_Lean_Widget_TaggedText___hyg_225____rarg(ptr noundef %0, ptr noundef %60, ptr noundef nonnull inttoptr (i64 1 to ptr))
  br label %lean_dec.exit30

77:                                               ; preds = %lean_obj_tag.exit49
  %78 = load ptr, ptr %33, align 8, !tbaa !4
  %79 = ptrtoint ptr %78 to i64
  %80 = and i64 %79, 1
  %.not60 = icmp eq i64 %80, 0
  br i1 %.not60, label %81, label %lean_inc.exit32

81:                                               ; preds = %77
  %.val.i53 = load i32, ptr %78, align 4, !tbaa !9
  %82 = icmp sgt i32 %.val.i53, 0
  br i1 %82, label %83, label %85, !prof !12

83:                                               ; preds = %81
  %84 = add nuw i32 %.val.i53, 1
  store i32 %84, ptr %78, align 4, !tbaa !9
  br label %lean_inc.exit32

85:                                               ; preds = %81
  %.not.i54 = icmp eq i32 %.val.i53, 0
  br i1 %.not.i54, label %lean_inc.exit32, label %86

86:                                               ; preds = %85
  tail call void @lean_inc_ref_cold(ptr noundef nonnull %78) #5
  br label %lean_inc.exit32

lean_inc.exit32:                                  ; preds = %86, %85, %83, %77
  br i1 %.not.i43, label %87, label %lean_dec.exit

87:                                               ; preds = %lean_inc.exit32
  %88 = load i32, ptr %1, align 4, !tbaa !9
  %89 = icmp sgt i32 %88, 1
  br i1 %89, label %90, label %92, !prof !12

90:                                               ; preds = %87
  %91 = add nsw i32 %88, -1
  store i32 %91, ptr %1, align 4, !tbaa !9
  br label %lean_dec.exit

92:                                               ; preds = %87
  %.not.i41 = icmp eq i32 %88, 0
  br i1 %.not.i41, label %lean_dec.exit, label %93

93:                                               ; preds = %92
  tail call void @lean_dec_ref_cold(ptr noundef nonnull %1) #5
  br label %lean_dec.exit

lean_dec.exit:                                    ; preds = %93, %92, %90, %lean_inc.exit32
  %94 = ptrtoint ptr %0 to i64
  %95 = and i64 %94, 1
  %.not62 = icmp eq i64 %95, 0
  br i1 %.not62, label %96, label %lean_inc.exit

96:                                               ; preds = %lean_dec.exit
  %.val.i56 = load i32, ptr %0, align 4, !tbaa !9
  %97 = icmp sgt i32 %.val.i56, 0
  br i1 %97, label %98, label %100, !prof !12

98:                                               ; preds = %96
  %99 = add nuw i32 %.val.i56, 1
  store i32 %99, ptr %0, align 4, !tbaa !9
  br label %lean_inc.exit

100:                                              ; preds = %96
  %.not.i57 = icmp eq i32 %.val.i56, 0
  br i1 %.not.i57, label %lean_inc.exit, label %101

101:                                              ; preds = %100
  tail call void @lean_inc_ref_cold(ptr noundef nonnull %0) #5
  br label %lean_inc.exit

lean_inc.exit:                                    ; preds = %101, %100, %98, %lean_dec.exit
  %102 = tail call ptr @l___private_Lean_Widget_TaggedText_0__Lean_Widget_reprTaggedText____x40_Lean_Widget_TaggedText___hyg_225____rarg(ptr noundef %0, ptr noundef %78, ptr noundef nonnull inttoptr (i64 1 to ptr))
  %103 = tail call ptr @l_List_foldl___at___private_Lean_Widget_TaggedText_0__Lean_Widget_reprTaggedText____x40_Lean_Widget_TaggedText___hyg_225____spec__4___rarg(ptr noundef %0, ptr noundef %2, ptr noundef %102, ptr noundef %35)
  br label %lean_dec.exit30

lean_dec.exit30:                                  ; preds = %lean_dec.exit31, %28, %30, %31, %lean_dec.exit28, %lean_inc.exit
  %.0 = phi ptr [ %76, %lean_dec.exit28 ], [ %103, %lean_inc.exit ], [ inttoptr (i64 1 to ptr), %31 ], [ inttoptr (i64 1 to ptr), %30 ], [ inttoptr (i64 1 to ptr), %28 ], [ inttoptr (i64 1 to ptr), %lean_dec.exit31 ]
  ret ptr %.0
}